; Function Attrs: mustprogress nounwind uwtable
define dso_local noundef zeroext i1 @_ZNK4llvm6MCExpr18evaluateAsAbsoluteERlRKNS_11MCAssemblerE(ptr noundef nonnull align 8 dereferenceable(16) %0, ptr nocapture noundef nonnull writeonly align 8 dereferenceable(8) %1, ptr noundef nonnull align 8 dereferenceable(372) %2) local_unnamed_addr #0 align 2 {
  %4 = alloca %"class.llvm::MCValue", align 8
  call void @llvm.lifetime.start.p0(i64 32, ptr nonnull %4)
  call void @llvm.memset.p0.i64(ptr noundef nonnull align 8 dereferenceable(28) %4, i8 0, i64 28, i1 false)
  %5 = load i8, ptr %0, align 8
  %.not.i = icmp eq i8 %5, 1
  br i1 %.not.i, label %6, label %9

6:                                                ; preds = %3
  %7 = getelementptr inbounds nuw i8, ptr %0, i64 16
  %8 = load i64, ptr %7, align 8
  store i64 %8, ptr %1, align 8
  br label %_ZNK4llvm6MCExpr18evaluateAsAbsoluteERlPKNS_11MCAssemblerEPKNS_8DenseMapIPKNS_9MCSectionEmNS_12DenseMapInfoIS8_vEENS_6detail12DenseMapPairIS8_mEEEEb.exit

9:                                                ; preds = %3
  %10 = call noundef zeroext i1 @_ZNK4llvm6MCExpr25evaluateAsRelocatableImplERNS_7MCValueEPKNS_11MCAssemblerEPKNS_7MCFixupEPKNS_8DenseMapIPKNS_9MCSectionEmNS_12DenseMapInfoISC_vEENS_6detail12DenseMapPairISC_mEEEEb(ptr noundef nonnull align 8 dereferenceable(16) %0, ptr noundef nonnull align 8 dereferenceable(28) %4, ptr noundef nonnull %2, ptr noundef null, ptr noundef null, i1 noundef zeroext false)
  %11 = getelementptr inbounds nuw i8, ptr %4, i64 16
  %12 = load i64, ptr %11, align 8
  store i64 %12, ptr %1, align 8
  br i1 %10, label %13, label %_ZNK4llvm6MCExpr18evaluateAsAbsoluteERlPKNS_11MCAssemblerEPKNS_8DenseMapIPKNS_9MCSectionEmNS_12DenseMapInfoIS8_vEENS_6detail12DenseMapPairIS8_mEEEEb.exit

13:                                               ; preds = %9
  %14 = load ptr, ptr %4, align 8
  %.not.i.i = icmp eq ptr %14, null
  %15 = getelementptr inbounds nuw i8, ptr %4, i64 8
  %16 = load ptr, ptr %15, align 8
  %.not1.i.i = icmp eq ptr %16, null
  %17 = select i1 %.not.i.i, i1 %.not1.i.i, i1 false
  br label %_ZNK4llvm6MCExpr18evaluateAsAbsoluteERlPKNS_11MCAssemblerEPKNS_8DenseMapIPKNS_9MCSectionEmNS_12DenseMapInfoIS8_vEENS_6detail12DenseMapPairIS8_mEEEEb.exit

_ZNK4llvm6MCExpr18evaluateAsAbsoluteERlPKNS_11MCAssemblerEPKNS_8DenseMapIPKNS_9MCSectionEmNS_12DenseMapInfoIS8_vEENS_6detail12DenseMapPairIS8_mEEEEb.exit: ; preds = %6, %9, %13
  %.0.i = phi i1 [ true, %6 ], [ false, %9 ], [ %17, %13 ]
  call void @llvm.lifetime.end.p0(i64 32, ptr nonnull %4)
  ret i1 %.0.i
}